target datalayout = "e-m:e-p270:32:32-p271:32:32-p272:64:64-i64:64-i128:128-f80:128-n8:16:32:64-S128"
target triple = "x86_64-unknown-linux-gnu"

%"class.icu_75::ScriptSet" = type { [7 x i32] }
%"class.icu_75::MaybeStackArray" = type { ptr, i32, i8, [20 x i32] }

; Function Attrs: mustprogress uwtable
define linkonce_odr void @_ZN6icu_7515MaybeStackArrayI11UScriptCodeLi20EE12releaseArrayEv(ptr noundef nonnull align 8 dereferenceable(96) %this) #2 comdat align 2 {
entry:
  %this.addr = alloca ptr, align 8
  store ptr %this, ptr %this.addr, align 8
  %this1 = load ptr, ptr %this.addr, align 8
  %needToRelease = getelementptr inbounds %"class.icu_75::MaybeStackArray", ptr %this1, i32 0, i32 2
  %0 = load i8, ptr %needToRelease, align 4
  %tobool = icmp ne i8 %0, 0
  br i1 %tobool, label %if.then, label %if.end

if.then:                                          ; preds = %entry
  %ptr = getelementptr inbounds %"class.icu_75::MaybeStackArray", ptr %this1, i32 0, i32 0
  %1 = load ptr, ptr %ptr, align 8
  call void @uprv_free_75(ptr noundef %1)
  br label %if.end

if.end:                                           ; preds = %if.then, %entry
  ret void
}

; Function Attrs: mustprogress uwtable
define noundef nonnull align 4 dereferenceable(28) ptr @_ZN6icu_759ScriptSet3setE11UScriptCodeR10UErrorCode(ptr noundef nonnull align 4 dereferenceable(28) %this, i32 noundef %script, ptr noundef nonnull align 4 dereferenceable(4) %status) #2 align 2 {
entry:
  %retval = alloca ptr, align 8
  %this.addr = alloca ptr, align 8
  %script.addr = alloca i32, align 4
  %status.addr = alloca ptr, align 8
  %index = alloca i32, align 4
  %bit = alloca i32, align 4
  store ptr %this, ptr %this.addr, align 8
  store i32 %script, ptr %script.addr, align 4
  store ptr %status, ptr %status.addr, align 8
  %this1 = load ptr, ptr %this.addr, align 8
  %0 = load ptr, ptr %status.addr, align 8
  %1 = load i32, ptr %0, align 4
  %call = call noundef signext i8 @_ZL9U_FAILURE10UErrorCode(i32 noundef %1)
  %tobool = icmp ne i8 %call, 0
  br i1 %tobool, label %if.then, label %if.end

if.then:                                          ; preds = %entry
  store ptr %this1, ptr %retval, align 8
  br label %return

if.end:                                           ; preds = %entry
  %2 = load i32, ptr %script.addr, align 4
  %cmp = icmp slt i32 %2, 0
  br i1 %cmp, label %if.then3, label %lor.lhs.false

lor.lhs.false:                                    ; preds = %if.end
  %3 = load i32, ptr %script.addr, align 4
  %cmp2 = icmp sge i32 %3, 224
  br i1 %cmp2, label %if.then3, label %if.end4

if.then3:                                         ; preds = %lor.lhs.false, %if.end
  %4 = load ptr, ptr %status.addr, align 8
  store i32 1, ptr %4, align 4
  store ptr %this1, ptr %retval, align 8
  br label %return

if.end4:                                          ; preds = %lor.lhs.false
  %5 = load i32, ptr %script.addr, align 4
  %div = sdiv i32 %5, 32
  store i32 %div, ptr %index, align 4
  %6 = load i32, ptr %script.addr, align 4
  %and = and i32 %6, 31
  %shl = shl i32 1, %and
  store i32 %shl, ptr %bit, align 4
  %7 = load i32, ptr %bit, align 4
  %bits = getelementptr inbounds %"class.icu_75::ScriptSet", ptr %this1, i32 0, i32 0
  %8 = load i32, ptr %index, align 4
  %idxprom = zext i32 %8 to i64
  %arrayidx = getelementptr inbounds [7 x i32], ptr %bits, i64 0, i64 %idxprom
  %9 = load i32, ptr %arrayidx, align 4
  %or = or i32 %9, %7
  store i32 %or, ptr %arrayidx, align 4
  store ptr %this1, ptr %retval, align 8
  br label %return

return:                                           ; preds = %if.end4, %if.then3, %if.then
  %10 = load ptr, ptr %retval, align 8
  ret ptr %10
}

; Function Attrs: mustprogress nounwind uwtable
define linkonce_odr noundef nonnull align 4 dereferenceable(4) ptr @_ZN6icu_7515MaybeStackArrayI11UScriptCodeLi20EEixEl(ptr noundef nonnull align 8 dereferenceable(96) %this, i64 noundef %i) #0 comdat align 2 {
entry:
  %this.addr = alloca ptr, align 8
  %i.addr = alloca i64, align 8
  store ptr %this, ptr %this.addr, align 8
  store i64 %i, ptr %i.addr, align 8
  %this1 = load ptr, ptr %this.addr, align 8
  %ptr = getelementptr inbounds %"class.icu_75::MaybeStackArray", ptr %this1, i32 0, i32 0
  %0 = load ptr, ptr %ptr, align 8
  %1 = load i64, ptr %i.addr, align 8
  %arrayidx = getelementptr inbounds i32, ptr %0, i64 %1
  ret ptr %arrayidx
}

; Function Attrs: mustprogress uwtable
define linkonce_odr noundef ptr @_ZN6icu_7515MaybeStackArrayI11UScriptCodeLi20EE6resizeEii(ptr noundef nonnull align 8 dereferenceable(96) %this, i32 noundef %newCapacity, i32 noundef %length) #2 comdat align 2 {
entry:
  %retval = alloca ptr, align 8
  %this.addr = alloca ptr, align 8
  %newCapacity.addr = alloca i32, align 4
  %length.addr = alloca i32, align 4
  %p = alloca ptr, align 8
  store ptr %this, ptr %this.addr, align 8
  store i32 %newCapacity, ptr %newCapacity.addr, align 4
  store i32 %length, ptr %length.addr, align 4
  %this1 = load ptr, ptr %this.addr, align 8
  %0 = load i32, ptr %newCapacity.addr, align 4
  %cmp = icmp sgt i32 %0, 0
  br i1 %cmp, label %if.then, label %if.else

if.then:                                          ; preds = %entry
  %1 = load i32, ptr %newCapacity.addr, align 4
  %conv = sext i32 %1 to i64
  %mul = mul i64 %conv, 4
  %call = call noalias ptr @uprv_malloc_75(i64 noundef %mul) #9
  store ptr %call, ptr %p, align 8
  %2 = load ptr, ptr %p, align 8
  %cmp2 = icmp ne ptr %2, null
  br i1 %cmp2, label %if.then3, label %if.end17

if.then3:                                         ; preds = %if.then
  %3 = load i32, ptr %length.addr, align 4
  %cmp4 = icmp sgt i32 %3, 0
  br i1 %cmp4, label %if.then5, label %if.end14

if.then5:                                         ; preds = %if.then3
  %4 = load i32, ptr %length.addr, align 4
  %capacity = getelementptr inbounds %"class.icu_75::MaybeStackArray", ptr %this1, i32 0, i32 1
  %5 = load i32, ptr %capacity, align 8
  %cmp6 = icmp sgt i32 %4, %5
  br i1 %cmp6, label %if.then7, label %if.end

if.then7:                                         ; preds = %if.then5
  %capacity8 = getelementptr inbounds %"class.icu_75::MaybeStackArray", ptr %this1, i32 0, i32 1
  %6 = load i32, ptr %capacity8, align 8
  store i32 %6, ptr %length.addr, align 4
  br label %if.end

if.end:                                           ; preds = %if.then7, %if.then5
  %7 = load i32, ptr %length.addr, align 4
  %8 = load i32, ptr %newCapacity.addr, align 4
  %cmp9 = icmp sgt i32 %7, %8
  br i1 %cmp9, label %if.then10, label %if.end11

if.then10:                                        ; preds = %if.end
  %9 = load i32, ptr %newCapacity.addr, align 4
  store i32 %9, ptr %length.addr, align 4
  br label %if.end11

if.end11:                                         ; preds = %if.then10, %if.end
  br label %do.body

do.body:                                          ; preds = %if.end11
  %10 = load ptr, ptr %p, align 8
  %ptr = getelementptr inbounds %"class.icu_75::MaybeStackArray", ptr %this1, i32 0, i32 0
  %11 = load ptr, ptr %ptr, align 8
  %12 = load i32, ptr %length.addr, align 4
  %conv12 = sext i32 %12 to i64
  %mul13 = mul i64 %conv12, 4
  call void @llvm.memcpy.p0.p0.i64(ptr align 4 %10, ptr align 4 %11, i64 %mul13, i1 false)
  br label %do.end

do.end:                                           ; preds = %do.body
  br label %if.end14

if.end14:                                         ; preds = %do.end, %if.then3
  call void @_ZN6icu_7515MaybeStackArrayI11UScriptCodeLi20EE12releaseArrayEv(ptr noundef nonnull align 8 dereferenceable(96) %this1)
  %13 = load ptr, ptr %p, align 8
  %ptr15 = getelementptr inbounds %"class.icu_75::MaybeStackArray", ptr %this1, i32 0, i32 0
  store ptr %13, ptr %ptr15, align 8
  %14 = load i32, ptr %newCapacity.addr, align 4
  %capacity16 = getelementptr inbounds %"class.icu_75::MaybeStackArray", ptr %this1, i32 0, i32 1
  store i32 %14, ptr %capacity16, align 8
  %needToRelease = getelementptr inbounds %"class.icu_75::MaybeStackArray", ptr %this1, i32 0, i32 2
  store i8 1, ptr %needToRelease, align 4
  br label %if.end17

if.end17:                                         ; preds = %if.end14, %if.then
  %15 = load ptr, ptr %p, align 8
  store ptr %15, ptr %retval, align 8
  br label %return

if.else:                                          ; preds = %entry
  store ptr null, ptr %retval, align 8
  br label %return

return:                                           ; preds = %if.else, %if.end17
  %16 = load ptr, ptr %retval, align 8
  ret ptr %16
}

; Function Attrs: mustprogress nounwind uwtable
define linkonce_odr noundef i32 @_ZNK6icu_7515MaybeStackArrayI11UScriptCodeLi20EE11getCapacityEv(ptr noundef nonnull align 8 dereferenceable(96) %this) #0 comdat align 2 {
entry:
  %this.addr = alloca ptr, align 8
  store ptr %this, ptr %this.addr, align 8
  %this1 = load ptr, ptr %this.addr, align 8
  %capacity = getelementptr inbounds %"class.icu_75::MaybeStackArray", ptr %this1, i32 0, i32 1
  %0 = load i32, ptr %capacity, align 8
  ret i32 %0
}

; Function Attrs: mustprogress nounwind uwtable
define linkonce_odr noundef ptr @_ZNK6icu_7515MaybeStackArrayI11UScriptCodeLi20EE8getAliasEv(ptr noundef nonnull align 8 dereferenceable(96) %this) #0 comdat align 2 {
entry:
  %this.addr = alloca ptr, align 8
  store ptr %this, ptr %this.addr, align 8
  %this1 = load ptr, ptr %this.addr, align 8
  %ptr = getelementptr inbounds %"class.icu_75::MaybeStackArray", ptr %this1, i32 0, i32 0
  %0 = load ptr, ptr %ptr, align 8
  ret ptr %0
}

; Function Attrs: mustprogress nounwind uwtable
define linkonce_odr void @_ZN6icu_7515MaybeStackArrayI11UScriptCodeLi20EEC2Ev(ptr noundef nonnull align 8 dereferenceable(96) %this) unnamed_addr #0 comdat align 2 {
entry:
  %this.addr = alloca ptr, align 8
  store ptr %this, ptr %this.addr, align 8
  %this1 = load ptr, ptr %this.addr, align 8
  %ptr = getelementptr inbounds %"class.icu_75::MaybeStackArray", ptr %this1, i32 0, i32 0
  %stackArray = getelementptr inbounds %"class.icu_75::MaybeStackArray", ptr %this1, i32 0, i32 3
  %arraydecay = getelementptr inbounds [20 x i32], ptr %stackArray, i64 0, i64 0
  store ptr %arraydecay, ptr %ptr, align 8
  %capacity = getelementptr inbounds %"class.icu_75::MaybeStackArray", ptr %this1, i32 0, i32 1
  store i32 20, ptr %capacity, align 8
  %needToRelease = getelementptr inbounds %"class.icu_75::MaybeStackArray", ptr %this1, i32 0, i32 2
  store i8 0, ptr %needToRelease, align 4
  ret void
}

; Function Attrs: mustprogress nounwind uwtable
define internal noundef signext i8 @_ZL9U_FAILURE10UErrorCode(i32 noundef %code) #0 {
entry:
  %code.addr = alloca i32, align 4
  store i32 %code, ptr %code.addr, align 4
  %0 = load i32, ptr %code.addr, align 4
  %cmp = icmp sgt i32 %0, 0
  %conv = zext i1 %cmp to i8
  ret i8 %conv
}

; Function Attrs: mustprogress uwtable
define void @_ZN6icu_759ScriptSet19setScriptExtensionsEiR10UErrorCode(ptr noundef nonnull align 4 dereferenceable(28) %this, i32 noundef %codePoint, ptr noundef nonnull align 4 dereferenceable(4) %status) #2 align 2 personality ptr @__gxx_personality_v0 {
entry:
  %this.addr = alloca ptr, align 8
  %codePoint.addr = alloca i32, align 4
  %status.addr = alloca ptr, align 8
  %scripts = alloca %"class.icu_75::MaybeStackArray", align 8
  %internalStatus = alloca i32, align 4
  %script_count = alloca i32, align 4
  %exn.slot = alloca ptr, align 8
  %ehselector.slot = alloca i32, align 4
  %cleanup.dest.slot = alloca i32, align 4
  %i = alloca i32, align 4
  store ptr %this, ptr %this.addr, align 8
  store i32 %codePoint, ptr %codePoint.addr, align 4
  store ptr %status, ptr %status.addr, align 8
  %this1 = load ptr, ptr %this.addr, align 8
  %0 = load ptr, ptr %status.addr, align 8
  %1 = load i32, ptr %0, align 4
  %call = call noundef signext i8 @_ZL9U_FAILURE10UErrorCode(i32 noundef %1)
  %tobool = icmp ne i8 %call, 0
  br i1 %tobool, label %if.then, label %if.end

if.then:                                          ; preds = %entry
  br label %cleanup.cont

if.end:                                           ; preds = %entry
  call void @_ZN6icu_7515MaybeStackArrayI11UScriptCodeLi20EEC2Ev(ptr noundef nonnull align 8 dereferenceable(96) %scripts)
  store i32 0, ptr %internalStatus, align 4
  store i32 -1, ptr %script_count, align 4
  br label %while.cond

while.cond:                                       ; preds = %if.end13, %if.end
  br label %while.body

while.body:                                       ; preds = %while.cond
  %2 = load i32, ptr %codePoint.addr, align 4
  %call2 = invoke noundef ptr @_ZNK6icu_7515MaybeStackArrayI11UScriptCodeLi20EE8getAliasEv(ptr noundef nonnull align 8 dereferenceable(96) %scripts)
          to label %invoke.cont unwind label %lpad

invoke.cont:                                      ; preds = %while.body
  %call4 = invoke noundef i32 @_ZNK6icu_7515MaybeStackArrayI11UScriptCodeLi20EE11getCapacityEv(ptr noundef nonnull align 8 dereferenceable(96) %scripts)
          to label %invoke.cont3 unwind label %lpad

invoke.cont3:                                     ; preds = %invoke.cont
  %call6 = invoke i32 @uscript_getScriptExtensions_75(i32 noundef %2, ptr noundef %call2, i32 noundef %call4, ptr noundef %internalStatus)
          to label %invoke.cont5 unwind label %lpad

invoke.cont5:                                     ; preds = %invoke.cont3
  store i32 %call6, ptr %script_count, align 4
  %3 = load i32, ptr %internalStatus, align 4
  %cmp = icmp eq i32 %3, 15
  br i1 %cmp, label %if.then7, label %if.else

if.then7:                                         ; preds = %invoke.cont5
  %4 = load i32, ptr %script_count, align 4
  %call9 = invoke noundef ptr @_ZN6icu_7515MaybeStackArrayI11UScriptCodeLi20EE6resizeEii(ptr noundef nonnull align 8 dereferenceable(96) %scripts, i32 noundef %4, i32 noundef 0)
          to label %invoke.cont8 unwind label %lpad

invoke.cont8:                                     ; preds = %if.then7
  %cmp10 = icmp eq ptr %call9, null
  br i1 %cmp10, label %if.then11, label %if.end12

if.then11:                                        ; preds = %invoke.cont8
  %5 = load ptr, ptr %status.addr, align 8
  store i32 7, ptr %5, align 4
  store i32 1, ptr %cleanup.dest.slot, align 4
  br label %cleanup

lpad:                                             ; preds = %invoke.cont22, %invoke.cont20, %for.body, %while.end, %if.then7, %invoke.cont3, %invoke.cont, %while.body
  %6 = landingpad { ptr, i32 }
          cleanup
  %7 = extractvalue { ptr, i32 } %6, 0
  store ptr %7, ptr %exn.slot, align 8
  %8 = extractvalue { ptr, i32 } %6, 1
  store i32 %8, ptr %ehselector.slot, align 4
  call void @_ZN6icu_7515MaybeStackArrayI11UScriptCodeLi20EED2Ev(ptr noundef nonnull align 8 dereferenceable(96) %scripts) #8
  br label %eh.resume

if.end12:                                         ; preds = %invoke.cont8
  store i32 0, ptr %internalStatus, align 4
  br label %if.end13

if.else:                                          ; preds = %invoke.cont5
  br label %while.end

if.end13:                                         ; preds = %if.end12
  br label %while.cond, !llvm.loop !17

while.end:                                        ; preds = %if.else
  %9 = load i32, ptr %internalStatus, align 4
  %call15 = invoke noundef signext i8 @_ZL9U_FAILURE10UErrorCode(i32 noundef %9)
          to label %invoke.cont14 unwind label %lpad

invoke.cont14:                                    ; preds = %while.end
  %tobool16 = icmp ne i8 %call15, 0
  br i1 %tobool16, label %if.then17, label %if.end18

if.then17:                                        ; preds = %invoke.cont14
  %10 = load i32, ptr %internalStatus, align 4
  %11 = load ptr, ptr %status.addr, align 8
  store i32 %10, ptr %11, align 4
  store i32 1, ptr %cleanup.dest.slot, align 4
  br label %cleanup

if.end18:                                         ; preds = %invoke.cont14
  store i32 0, ptr %i, align 4
  br label %for.cond

for.cond:                                         ; preds = %for.inc, %if.end18
  %12 = load i32, ptr %i, align 4
  %13 = load i32, ptr %script_count, align 4
  %cmp19 = icmp slt i32 %12, %13
  br i1 %cmp19, label %for.body, label %for.end

for.body:                                         ; preds = %for.cond
  %14 = load i32, ptr %i, align 4
  %conv = sext i32 %14 to i64
  %call21 = invoke noundef nonnull align 4 dereferenceable(4) ptr @_ZN6icu_7515MaybeStackArrayI11UScriptCodeLi20EEixEl(ptr noundef nonnull align 8 dereferenceable(96) %scripts, i64 noundef %conv)
          to label %invoke.cont20 unwind label %lpad

invoke.cont20:                                    ; preds = %for.body
  %15 = load i32, ptr %call21, align 4
  %16 = load ptr, ptr %status.addr, align 8
  %call23 = invoke noundef nonnull align 4 dereferenceable(28) ptr @_ZN6icu_759ScriptSet3setE11UScriptCodeR10UErrorCode(ptr noundef nonnull align 4 dereferenceable(28) %this1, i32 noundef %15, ptr noundef nonnull align 4 dereferenceable(4) %16)
          to label %invoke.cont22 unwind label %lpad

invoke.cont22:                                    ; preds = %invoke.cont20
  %17 = load ptr, ptr %status.addr, align 8
  %18 = load i32, ptr %17, align 4
  %call25 = invoke noundef signext i8 @_ZL9U_FAILURE10UErrorCode(i32 noundef %18)
          to label %invoke.cont24 unwind label %lpad

invoke.cont24:                                    ; preds = %invoke.cont22
  %tobool26 = icmp ne i8 %call25, 0
  br i1 %tobool26, label %if.then27, label %if.end28

if.then27:                                        ; preds = %invoke.cont24
  store i32 1, ptr %cleanup.dest.slot, align 4
  br label %cleanup

if.end28:                                         ; preds = %invoke.cont24
  br label %for.inc

for.inc:                                          ; preds = %if.end28
  %19 = load i32, ptr %i, align 4
  %inc = add nsw i32 %19, 1
  store i32 %inc, ptr %i, align 4
  br label %for.cond, !llvm.loop !18

for.end:                                          ; preds = %for.cond
  store i32 0, ptr %cleanup.dest.slot, align 4
  br label %cleanup

cleanup:                                          ; preds = %for.end, %if.then27, %if.then17, %if.then11
  call void @_ZN6icu_7515MaybeStackArrayI11UScriptCodeLi20EED2Ev(ptr noundef nonnull align 8 dereferenceable(96) %scripts) #8
  %cleanup.dest = load i32, ptr %cleanup.dest.slot, align 4
  switch i32 %cleanup.dest, label %unreachable [
    i32 0, label %cleanup.cont
    i32 1, label %cleanup.cont
  ]

cleanup.cont:                                     ; preds = %cleanup, %cleanup, %if.then
  ret void

eh.resume:                                        ; preds = %lpad
  %exn = load ptr, ptr %exn.slot, align 8
  %sel = load i32, ptr %ehselector.slot, align 4
  %lpad.val = insertvalue { ptr, i32 } poison, ptr %exn, 0
  %lpad.val29 = insertvalue { ptr, i32 } %lpad.val, i32 %sel, 1
  resume { ptr, i32 } %lpad.val29

unreachable:                                      ; preds = %cleanup
  unreachable
}