; Function Attrs: mustprogress uwtable
define void @_ZN6icu_759ScriptSet19setScriptExtensionsEiR10UErrorCode(ptr nocapture noundef nonnull align 4 dereferenceable(28) %this, i32 noundef %codePoint, ptr nocapture noundef nonnull align 4 dereferenceable(4) %status) local_unnamed_addr #7 align 2 personality ptr @__gxx_personality_v0 {
entry:
  %scripts = alloca %"class.icu_75::MaybeStackArray", align 8
  %internalStatus = alloca i32, align 4
  %0 = load i32, ptr %status, align 4
  %cmp.i = icmp slt i32 %0, 1
  br i1 %cmp.i, label %if.end, label %cleanup.cont

if.end:                                           ; preds = %entry
  %stackArray.i = getelementptr inbounds i8, ptr %scripts, i64 16
  store ptr %stackArray.i, ptr %scripts, align 8
  %capacity.i = getelementptr inbounds i8, ptr %scripts, i64 8
  store i32 20, ptr %capacity.i, align 8
  %needToRelease.i = getelementptr inbounds i8, ptr %scripts, i64 12
  br label %while.cond

while.cond:                                       ; preds = %invoke.cont8, %if.end
  %1 = phi i32 [ 20, %if.end ], [ %call6, %invoke.cont8 ]
  %2 = phi ptr [ %stackArray.i, %if.end ], [ %call.i11, %invoke.cont8 ]
  %storemerge = phi i8 [ 0, %if.end ], [ 1, %invoke.cont8 ]
  store i8 %storemerge, ptr %needToRelease.i, align 4
  store i32 0, ptr %internalStatus, align 4
  %call6 = invoke i32 @uscript_getScriptExtensions_75(i32 noundef %codePoint, ptr noundef nonnull %2, i32 noundef %1, ptr noundef nonnull %internalStatus)
          to label %invoke.cont5 unwind label %lpad

invoke.cont5:                                     ; preds = %while.cond
  %3 = load i32, ptr %internalStatus, align 4
  %cmp = icmp eq i32 %3, 15
  br i1 %cmp, label %if.then7, label %while.end

if.then7:                                         ; preds = %invoke.cont5
  %cmp.i9 = icmp sgt i32 %call6, 0
  br i1 %cmp.i9, label %if.then.i, label %cleanup.sink.split

if.then.i:                                        ; preds = %if.then7
  %conv.i10 = zext nneg i32 %call6 to i64
  %mul.i = shl nuw nsw i64 %conv.i10, 2
  %call.i11 = invoke noalias ptr @uprv_malloc_75(i64 noundef %mul.i) #15
          to label %call.i.noexc unwind label %lpad

call.i.noexc:                                     ; preds = %if.then.i
  %cmp2.not.i = icmp eq ptr %call.i11, null
  br i1 %cmp2.not.i, label %cleanup.sink.split, label %if.then3.i

if.then3.i:                                       ; preds = %call.i.noexc
  %4 = load i8, ptr %needToRelease.i, align 4
  %tobool.not.i.i = icmp eq i8 %4, 0
  br i1 %tobool.not.i.i, label %invoke.cont8, label %if.then.i.i

if.then.i.i:                                      ; preds = %if.then3.i
  %5 = load ptr, ptr %scripts, align 8
  invoke void @uprv_free_75(ptr noundef %5)
          to label %invoke.cont8 unwind label %lpad

invoke.cont8:                                     ; preds = %if.then3.i, %if.then.i.i
  store ptr %call.i11, ptr %scripts, align 8
  store i32 %call6, ptr %capacity.i, align 8
  br label %while.cond, !llvm.loop !16

lpad:                                             ; preds = %if.then.i.i, %if.then.i, %while.cond
  %6 = landingpad { ptr, i32 }
          cleanup
  call void @_ZN6icu_7515MaybeStackArrayI11UScriptCodeLi20EED2Ev(ptr noundef nonnull align 8 dereferenceable(96) %scripts) #14
  resume { ptr, i32 } %6

while.end:                                        ; preds = %invoke.cont5
  %cmp.i12 = icmp slt i32 %3, 1
  br i1 %cmp.i12, label %for.cond.preheader, label %cleanup.sink.split

for.cond.preheader:                               ; preds = %while.end
  %cmp1925 = icmp sgt i32 %call6, 0
  br i1 %cmp1925, label %for.body.lr.ph, label %cleanup

for.body.lr.ph:                                   ; preds = %for.cond.preheader
  %7 = load ptr, ptr %scripts, align 8
  %8 = load i32, ptr %status, align 4
  %9 = icmp slt i32 %8, 1
  br i1 %9, label %for.body.preheader, label %cleanup

for.body.preheader:                               ; preds = %for.body.lr.ph
  %wide.trip.count = zext nneg i32 %call6 to i64
  br label %if.end.i

if.end.i:                                         ; preds = %invoke.cont22, %for.body.preheader
  %indvars.iv = phi i64 [ 0, %for.body.preheader ], [ %indvars.iv.next, %invoke.cont22 ]
  %arrayidx.i = getelementptr inbounds i32, ptr %7, i64 %indvars.iv
  %10 = load i32, ptr %arrayidx.i, align 4
  %or.cond.i = icmp ugt i32 %10, 223
  br i1 %or.cond.i, label %cleanup.sink.split, label %invoke.cont22

invoke.cont22:                                    ; preds = %if.end.i
  %div5.i = lshr i32 %10, 5
  %and.i = and i32 %10, 31
  %shl.i = shl nuw i32 1, %and.i
  %idxprom.i = zext nneg i32 %div5.i to i64
  %arrayidx.i14 = getelementptr inbounds [7 x i32], ptr %this, i64 0, i64 %idxprom.i
  %11 = load i32, ptr %arrayidx.i14, align 4
  %or.i = or i32 %11, %shl.i
  store i32 %or.i, ptr %arrayidx.i14, align 4
  %.pre = load i32, ptr %status, align 4
  %cmp.i16 = icmp sgt i32 %.pre, 0
  %indvars.iv.next = add nuw nsw i64 %indvars.iv, 1
  %exitcond.not = icmp eq i64 %indvars.iv.next, %wide.trip.count
  %or.cond = select i1 %cmp.i16, i1 true, i1 %exitcond.not
  br i1 %or.cond, label %cleanup, label %if.end.i, !llvm.loop !17

cleanup.sink.split:                               ; preds = %if.then7, %call.i.noexc, %if.end.i, %while.end
  %.sink = phi i32 [ %3, %while.end ], [ 1, %if.end.i ], [ 7, %call.i.noexc ], [ 7, %if.then7 ]
  store i32 %.sink, ptr %status, align 4
  br label %cleanup

cleanup:                                          ; preds = %invoke.cont22, %cleanup.sink.split, %for.body.lr.ph, %for.cond.preheader
  %12 = load i8, ptr %needToRelease.i, align 4
  %tobool.not.i.i19 = icmp eq i8 %12, 0
  br i1 %tobool.not.i.i19, label %cleanup.cont, label %if.then.i.i20

if.then.i.i20:                                    ; preds = %cleanup
  %13 = load ptr, ptr %scripts, align 8
  invoke void @uprv_free_75(ptr noundef %13)
          to label %cleanup.cont unwind label %terminate.lpad.i

terminate.lpad.i:                                 ; preds = %if.then.i.i20
  %14 = landingpad { ptr, i32 }
          catch ptr null
  %15 = extractvalue { ptr, i32 } %14, 0
  call void @__clang_call_terminate(ptr %15) #16
  unreachable

cleanup.cont:                                     ; preds = %if.then.i.i20, %cleanup, %entry
  ret void
}